; Function Attrs: mustprogress uwtable
define void @_ZN6icu_7718DateIntervalFormat13adoptTimeZoneEPNS_8TimeZoneE(ptr noundef nonnull readonly align 8 captures(none) dereferenceable(1596) %0, ptr noundef %1) unnamed_addr #1 align 2 {
  %3 = getelementptr inbounds nuw i8, ptr %0, i64 32
  %4 = load ptr, ptr %3, align 8, !tbaa !48
  %.not = icmp eq ptr %4, null
  br i1 %.not, label %9, label %5

5:                                                ; preds = %2
  %6 = load ptr, ptr %4, align 8, !tbaa !15
  %7 = getelementptr inbounds nuw i8, ptr %6, i64 184
  %8 = load ptr, ptr %7, align 8
  tail call void %8(ptr noundef nonnull align 8 dereferenceable(48) %4, ptr noundef %1)
  br label %9

9:                                                ; preds = %5, %2
  %10 = getelementptr inbounds nuw i8, ptr %0, i64 40
  %11 = load ptr, ptr %10, align 8, !tbaa !50
  %.not6 = icmp eq ptr %11, null
  br i1 %.not6, label %13, label %12

12:                                               ; preds = %9
  tail call void @_ZN6icu_778Calendar11setTimeZoneERKNS_8TimeZoneE(ptr noundef nonnull align 8 dereferenceable(192) %11, ptr noundef nonnull align 8 dereferenceable(72) %1)
  br label %13

13:                                               ; preds = %12, %9
  %14 = getelementptr inbounds nuw i8, ptr %0, i64 48
  %15 = load ptr, ptr %14, align 8, !tbaa !51
  %.not7 = icmp eq ptr %15, null
  br i1 %.not7, label %17, label %16

16:                                               ; preds = %13
  tail call void @_ZN6icu_778Calendar11setTimeZoneERKNS_8TimeZoneE(ptr noundef nonnull align 8 dereferenceable(192) %15, ptr noundef nonnull align 8 dereferenceable(72) %1)
  br label %17

17:                                               ; preds = %16, %13
  ret void
}